target datalayout = "e-m:e-p270:32:32-p271:32:32-p272:64:64-i64:64-i128:128-f80:128-n8:16:32:64-S128"
target triple = "x86_64-pc-linux-gnu"

%struct.DSA_PKEY_CTX = type { i32, i32, ptr, [2 x i32], ptr }
%struct.evp_pkey_ctx_st = type { i32, ptr, ptr, ptr, ptr, %union.anon, %struct.anon.4, ptr, ptr, ptr, i32, i32, ptr, ptr, ptr, ptr, ptr, i8, ptr }
%union.anon = type { %struct.anon.0 }
%struct.anon.0 = type { ptr, ptr }
%struct.anon.4 = type { ptr, ptr, i64, i8 }

; Function Attrs: nounwind uwtable
define internal i32 @pkey_dsa_verify(ptr noundef %0, ptr noundef %1, i64 noundef %2, ptr noundef %3, i64 noundef %4) #0 {
  %6 = alloca i32, align 4
  %7 = alloca ptr, align 8
  %8 = alloca ptr, align 8
  %9 = alloca i64, align 8
  %10 = alloca ptr, align 8
  %11 = alloca i64, align 8
  %12 = alloca i32, align 4
  %13 = alloca i32, align 4
  %14 = alloca ptr, align 8
  %15 = alloca ptr, align 8
  %16 = alloca i32, align 4
  store ptr %0, ptr %7, align 8, !tbaa !3
  store ptr %1, ptr %8, align 8, !tbaa !38
  store i64 %2, ptr %9, align 8, !tbaa !41
  store ptr %3, ptr %10, align 8, !tbaa !38
  store i64 %4, ptr %11, align 8, !tbaa !41
  call void @llvm.lifetime.start.p0(i64 4, ptr %12) #6
  call void @llvm.lifetime.start.p0(i64 4, ptr %13) #6
  call void @llvm.lifetime.start.p0(i64 8, ptr %14) #6
  %17 = load ptr, ptr %7, align 8, !tbaa !3
  %18 = getelementptr inbounds nuw %struct.evp_pkey_ctx_st, ptr %17, i32 0, i32 16
  %19 = load ptr, ptr %18, align 8, !tbaa !16
  store ptr %19, ptr %14, align 8, !tbaa !8
  call void @llvm.lifetime.start.p0(i64 8, ptr %15) #6
  %20 = load ptr, ptr %7, align 8, !tbaa !3
  %21 = getelementptr inbounds nuw %struct.evp_pkey_ctx_st, ptr %20, i32 0, i32 14
  %22 = load ptr, ptr %21, align 8, !tbaa !37
  %23 = call ptr @EVP_PKEY_get0_DSA(ptr noundef %22)
  store ptr %23, ptr %15, align 8, !tbaa !31
  %24 = load ptr, ptr %14, align 8, !tbaa !8
  %25 = getelementptr inbounds nuw %struct.DSA_PKEY_CTX, ptr %24, i32 0, i32 4
  %26 = load ptr, ptr %25, align 8, !tbaa !15
  %27 = icmp ne ptr %26, null
  br i1 %27, label %28, label %43

28:                                               ; preds = %5
  %29 = load ptr, ptr %14, align 8, !tbaa !8
  %30 = getelementptr inbounds nuw %struct.DSA_PKEY_CTX, ptr %29, i32 0, i32 4
  %31 = load ptr, ptr %30, align 8, !tbaa !15
  %32 = call i32 @EVP_MD_get_size(ptr noundef %31)
  store i32 %32, ptr %13, align 4, !tbaa !36
  %33 = load i32, ptr %13, align 4, !tbaa !36
  %34 = icmp sle i32 %33, 0
  br i1 %34, label %35, label %36

35:                                               ; preds = %28
  store i32 0, ptr %6, align 4
  store i32 1, ptr %16, align 4
  br label %53

36:                                               ; preds = %28
  %37 = load i64, ptr %11, align 8, !tbaa !41
  %38 = load i32, ptr %13, align 4, !tbaa !36
  %39 = sext i32 %38 to i64
  %40 = icmp ne i64 %37, %39
  br i1 %40, label %41, label %42

41:                                               ; preds = %36
  store i32 0, ptr %6, align 4
  store i32 1, ptr %16, align 4
  br label %53

42:                                               ; preds = %36
  br label %43

43:                                               ; preds = %42, %5
  %44 = load ptr, ptr %10, align 8, !tbaa !38
  %45 = load i64, ptr %11, align 8, !tbaa !41
  %46 = trunc i64 %45 to i32
  %47 = load ptr, ptr %8, align 8, !tbaa !38
  %48 = load i64, ptr %9, align 8, !tbaa !41
  %49 = trunc i64 %48 to i32
  %50 = load ptr, ptr %15, align 8, !tbaa !31
  %51 = call i32 @DSA_verify(i32 noundef 0, ptr noundef %44, i32 noundef %46, ptr noundef %47, i32 noundef %49, ptr noundef %50)
  store i32 %51, ptr %12, align 4, !tbaa !36
  %52 = load i32, ptr %12, align 4, !tbaa !36
  store i32 %52, ptr %6, align 4
  store i32 1, ptr %16, align 4
  br label %53

53:                                               ; preds = %43, %41, %35
  call void @llvm.lifetime.end.p0(i64 8, ptr %15) #6
  call void @llvm.lifetime.end.p0(i64 8, ptr %14) #6
  call void @llvm.lifetime.end.p0(i64 4, ptr %13) #6
  call void @llvm.lifetime.end.p0(i64 4, ptr %12) #6
  %54 = load i32, ptr %6, align 4
  ret i32 %54
}