; Function Attrs: nounwind uwtable
define internal i32 @pkey_dsa_verify(ptr noundef readonly captures(none) %0, ptr noundef %1, i64 noundef %2, ptr noundef %3, i64 noundef %4) #1 {
  %6 = getelementptr inbounds nuw i8, ptr %0, i64 152
  %7 = load ptr, ptr %6, align 8, !tbaa !13
  %8 = getelementptr inbounds nuw i8, ptr %0, i64 136
  %9 = load ptr, ptr %8, align 8, !tbaa !28
  %10 = tail call ptr @EVP_PKEY_get0_DSA(ptr noundef %9) #7
  %11 = getelementptr inbounds nuw i8, ptr %7, i64 24
  %12 = load ptr, ptr %11, align 8, !tbaa !12
  %.not = icmp eq ptr %12, null
  br i1 %.not, label %17, label %13

13:                                               ; preds = %5
  %14 = tail call i32 @EVP_MD_get_size(ptr noundef nonnull %12) #7
  %15 = icmp sgt i32 %14, 0
  %16 = zext nneg i32 %14 to i64
  %.not15 = icmp eq i64 %4, %16
  %or.cond = select i1 %15, i1 %.not15, i1 false
  br i1 %or.cond, label %17, label %21

17:                                               ; preds = %13, %5
  %18 = trunc i64 %4 to i32
  %19 = trunc i64 %2 to i32
  %20 = tail call i32 @DSA_verify(i32 noundef 0, ptr noundef %3, i32 noundef %18, ptr noundef %1, i32 noundef %19, ptr noundef %10) #7
  br label %21

21:                                               ; preds = %13, %17
  %.0 = phi i32 [ %20, %17 ], [ 0, %13 ]
  ret i32 %.0
}